#include <math.h>
#include <stdio.h>
#include <stdlib.h>
#include <string.h>

int main(){   
	char a[50][33];
	int n,i,j;
	scanf("%d",&n);
	for(i=0;i<=n;i++){
		gets(a[i]);
	}
	for(i=0;i<=n;i++){
		for(j=0;j<strlen(a[i]);j++){
			if(a[i][j]=='e'&&a[i][j+1]=='r'&&j==strlen(a[i])-2||a[i][j]=='i'&&a[i][j+1]=='n'&&a[i][j+2]=='g'||a[i][j]=='l'&&a[i][j+1]=='y'){
				a[i][j]='\0';
			}
		}
	}
	for(i=0;i<=n;i++){
		puts(a[i]);
	}
	return 0;
}